ccopy_reg
_reconstructor
p1
(crequests.structures
CaseInsensitiveDict
p2
c__builtin__
object
p3
NtRp4
(dp5
S'_store'
p6
curllib3.packages.ordered_dict
OrderedDict
p7
((lp8
(lp9
S'connection'
p10
a(S'Connection'
p11
S'keep-alive'
p12
tp13
aa(lp14
S'accept-encoding'
p15
a(S'Accept-Encoding'
p16
S'gzip, deflate'
p17
tp18
aa(lp19
S'accept'
p20
a(S'Accept'
p21
S'*/*'
p22
tp23
aa(lp24
S'user-agent'
p25
a(S'User-Agent'
p26
S'python-requests/2.18.4'
tp27
aatRp28
sb.(dp1
S'l_n_c'
p2
S'1'
sS'q_c1'
p3
S'9a45fa193529413fb3f384993e0d5ddc|1510564852000|1510564852000'
p4
sS'aliyungf_tc'
p5
S'AQAAAI3uFCHQYgMAsDReZQO9oQT7kkKw'
p6
sS'_xsrf'
p7
S'2ff927a6e3d920ee3c25292db09c0f78'
p8
sS'r_cap_id'
p9
S'"ZjY2ZTA2OGM2YjI5NDVhZjhlNGMzZjA4YWIwNWE3OTY=|1510564852|92a16f73467e88859c27dcd5bf3c8cd605bc37b9"'
p10
sS'cap_id'
p11
S'"MDQ3ZDU4MDIyOWJjNGU4ZTg0Y2VlNzA1NmExZjExMjA=|1510564852|8b2c22abaff6a0441624e664ab318410567862a3"'
p12
sS'l_cap_id'
p13
S'"YzE0ZDQ4OWIyMTEyNGZmN2JmODM5MGI0MDg4MDc3Y2I=|1510564852|04cdc23c7b44328fd09dd6d5fa43863e3e3f7a2a"'
p14
sS'n_c'
p15
S'1'
s.